target datalayout = "e-m:e-p270:32:32-p271:32:32-p272:64:64-i64:64-i128:128-f80:128-n8:16:32:64-S128"
target triple = "x86_64-pc-linux-gnu"

%struct.expert_field = type { i32, i32 }
%struct.mysql_exec_dissector = type { i8, i8, ptr }

@hf_mysql_param_name = internal global i32 0, align 4
@hf_mysql_fld_type = internal global i32 0, align 4
@hf_mysql_exec_param = internal global i32 0, align 4
@hf_mysql_exec_unsigned = internal global i32 0, align 4
@ett_stat = internal global i32 0, align 4
@ei_mysql_streamed_param = internal global %struct.expert_field zeroinitializer, align 4

; Function Attrs: null_pointer_is_valid sspstrong uwtable
define internal i32 @tvb_get_fle(ptr noundef %0, ptr noundef %1, i32 noundef %2, ptr noundef %3, ptr noundef %4) #0 {
  %6 = alloca i32, align 4
  %7 = alloca ptr, align 8
  %8 = alloca ptr, align 8
  %9 = alloca i32, align 4
  %10 = alloca ptr, align 8
  %11 = alloca ptr, align 8
  %12 = alloca i8, align 1
  %13 = alloca i32, align 4
  %14 = alloca i64, align 8
  %15 = alloca i32, align 4
  store ptr %0, ptr %7, align 8
  store ptr %1, ptr %8, align 8
  store i32 %2, ptr %9, align 4
  store ptr %3, ptr %10, align 8
  store ptr %4, ptr %11, align 8
  call void @llvm.lifetime.start.p0(i64 1, ptr %12) #11
  call void @llvm.lifetime.start.p0(i64 4, ptr %13) #11
  call void @llvm.lifetime.start.p0(i64 8, ptr %14) #11
  %16 = load ptr, ptr %7, align 8
  %17 = load i32, ptr %9, align 4
  %18 = call zeroext i8 @tvb_get_uint8(ptr noundef %16, i32 noundef %17)
  store i8 %18, ptr %12, align 1
  %19 = load ptr, ptr %11, align 8
  %20 = icmp ne ptr %19, null
  br i1 %20, label %21, label %23

21:                                               ; preds = %5
  %22 = load ptr, ptr %11, align 8
  store i8 0, ptr %22, align 1
  br label %23

23:                                               ; preds = %21, %5
  %24 = load i8, ptr %12, align 1
  %25 = zext i8 %24 to i32
  switch i32 %25, label %57 [
    i32 251, label %26
    i32 252, label %37
    i32 253, label %44
    i32 254, label %51
  ]

26:                                               ; preds = %23
  %27 = load ptr, ptr %10, align 8
  %28 = icmp ne ptr %27, null
  br i1 %28, label %29, label %31

29:                                               ; preds = %26
  %30 = load ptr, ptr %10, align 8
  store i64 0, ptr %30, align 8
  br label %31

31:                                               ; preds = %29, %26
  %32 = load ptr, ptr %11, align 8
  %33 = icmp ne ptr %32, null
  br i1 %33, label %34, label %36

34:                                               ; preds = %31
  %35 = load ptr, ptr %11, align 8
  store i8 1, ptr %35, align 1
  br label %36

36:                                               ; preds = %34, %31
  store i32 1, ptr %6, align 4
  store i32 1, ptr %15, align 4
  br label %70

37:                                               ; preds = %23
  store i32 3, ptr %13, align 4
  %38 = load i32, ptr %9, align 4
  %39 = add i32 %38, 1
  store i32 %39, ptr %9, align 4
  %40 = load ptr, ptr %7, align 8
  %41 = load i32, ptr %9, align 4
  %42 = call zeroext i16 @tvb_get_uint16(ptr noundef %40, i32 noundef %41, i32 noundef -2147483648)
  %43 = zext i16 %42 to i64
  store i64 %43, ptr %14, align 8
  br label %62

44:                                               ; preds = %23
  store i32 4, ptr %13, align 4
  %45 = load i32, ptr %9, align 4
  %46 = add i32 %45, 1
  store i32 %46, ptr %9, align 4
  %47 = load ptr, ptr %7, align 8
  %48 = load i32, ptr %9, align 4
  %49 = call i32 @tvb_get_uint24(ptr noundef %47, i32 noundef %48, i32 noundef -2147483648)
  %50 = zext i32 %49 to i64
  store i64 %50, ptr %14, align 8
  br label %62

51:                                               ; preds = %23
  store i32 9, ptr %13, align 4
  %52 = load i32, ptr %9, align 4
  %53 = add i32 %52, 1
  store i32 %53, ptr %9, align 4
  %54 = load ptr, ptr %7, align 8
  %55 = load i32, ptr %9, align 4
  %56 = call i64 @tvb_get_uint64(ptr noundef %54, i32 noundef %55, i32 noundef -2147483648)
  store i64 %56, ptr %14, align 8
  br label %62

57:                                               ; preds = %23
  store i32 1, ptr %13, align 4
  %58 = load ptr, ptr %7, align 8
  %59 = load i32, ptr %9, align 4
  %60 = call zeroext i8 @tvb_get_uint8(ptr noundef %58, i32 noundef %59)
  %61 = zext i8 %60 to i64
  store i64 %61, ptr %14, align 8
  br label %62

62:                                               ; preds = %57, %51, %44, %37
  %63 = load ptr, ptr %10, align 8
  %64 = icmp ne ptr %63, null
  br i1 %64, label %65, label %68

65:                                               ; preds = %62
  %66 = load i64, ptr %14, align 8
  %67 = load ptr, ptr %10, align 8
  store i64 %66, ptr %67, align 8
  br label %68

68:                                               ; preds = %65, %62
  %69 = load i32, ptr %13, align 4
  store i32 %69, ptr %6, align 4
  store i32 1, ptr %15, align 4
  br label %70

70:                                               ; preds = %68, %36
  call void @llvm.lifetime.end.p0(i64 8, ptr %14) #11
  call void @llvm.lifetime.end.p0(i64 4, ptr %13) #11
  call void @llvm.lifetime.end.p0(i64 1, ptr %12) #11
  %71 = load i32, ptr %6, align 4
  ret i32 %71
}

; Function Attrs: null_pointer_is_valid sspstrong uwtable
define internal signext i8 @mysql_dissect_exec_param(ptr noundef %0, ptr noundef %1, ptr noundef %2, ptr noundef %3, i8 noundef zeroext %4, ptr noundef %5, i32 noundef %6, i1 noundef zeroext %7) #0 {
  %9 = alloca i8, align 1
  %10 = alloca ptr, align 8
  %11 = alloca ptr, align 8
  %12 = alloca ptr, align 8
  %13 = alloca ptr, align 8
  %14 = alloca i8, align 1
  %15 = alloca ptr, align 8
  %16 = alloca i32, align 4
  %17 = alloca i8, align 1
  %18 = alloca i8, align 1
  %19 = alloca i8, align 1
  %20 = alloca i8, align 1
  %21 = alloca i64, align 8
  %22 = alloca ptr, align 8
  %23 = alloca ptr, align 8
  %24 = alloca i32, align 4
  %25 = alloca i32, align 4
  store ptr %0, ptr %10, align 8
  store ptr %1, ptr %11, align 8
  store ptr %2, ptr %12, align 8
  store ptr %3, ptr %13, align 8
  store i8 %4, ptr %14, align 1
  store ptr %5, ptr %15, align 8
  store i32 %6, ptr %16, align 4
  %26 = zext i1 %7 to i8
  store i8 %26, ptr %17, align 1
  call void @llvm.lifetime.start.p0(i64 1, ptr %18) #11
  call void @llvm.lifetime.start.p0(i64 1, ptr %19) #11
  call void @llvm.lifetime.start.p0(i64 1, ptr %20) #11
  call void @llvm.lifetime.start.p0(i64 8, ptr %21) #11
  call void @llvm.lifetime.start.p0(i64 8, ptr %22) #11
  call void @llvm.lifetime.start.p0(i64 8, ptr %23) #11
  call void @llvm.lifetime.start.p0(i64 4, ptr %24) #11
  store i32 0, ptr %24, align 4
  %27 = load ptr, ptr %10, align 8
  %28 = load i32, ptr @hf_mysql_exec_param, align 4
  %29 = load ptr, ptr %11, align 8
  %30 = load ptr, ptr %12, align 8
  %31 = load i32, ptr %30, align 4
  %32 = call ptr @proto_tree_add_item(ptr noundef %27, i32 noundef %28, ptr noundef %29, i32 noundef %31, i32 noundef 2, i32 noundef 0)
  store ptr %32, ptr %22, align 8
  %33 = load ptr, ptr %22, align 8
  %34 = load i32, ptr @ett_stat, align 4
  %35 = call ptr @proto_item_add_subtree(ptr noundef %33, i32 noundef %34)
  store ptr %35, ptr %23, align 8
  %36 = load ptr, ptr %23, align 8
  %37 = load i32, ptr @hf_mysql_fld_type, align 4
  %38 = load ptr, ptr %11, align 8
  %39 = load ptr, ptr %12, align 8
  %40 = load i32, ptr %39, align 4
  %41 = call ptr @proto_tree_add_item(ptr noundef %36, i32 noundef %37, ptr noundef %38, i32 noundef %40, i32 noundef 1, i32 noundef 0)
  %42 = load ptr, ptr %11, align 8
  %43 = load ptr, ptr %12, align 8
  %44 = load i32, ptr %43, align 4
  %45 = call zeroext i8 @tvb_get_uint8(ptr noundef %42, i32 noundef %44)
  store i8 %45, ptr %18, align 1
  %46 = load ptr, ptr %12, align 8
  %47 = load i32, ptr %46, align 4
  %48 = add i32 %47, 1
  store i32 %48, ptr %46, align 4
  %49 = load ptr, ptr %23, align 8
  %50 = load i32, ptr @hf_mysql_exec_unsigned, align 4
  %51 = load ptr, ptr %11, align 8
  %52 = load ptr, ptr %12, align 8
  %53 = load i32, ptr %52, align 4
  %54 = call ptr @proto_tree_add_item(ptr noundef %49, i32 noundef %50, ptr noundef %51, i32 noundef %53, i32 noundef 1, i32 noundef 0)
  %55 = load ptr, ptr %11, align 8
  %56 = load ptr, ptr %12, align 8
  %57 = load i32, ptr %56, align 4
  %58 = call zeroext i8 @tvb_get_uint8(ptr noundef %55, i32 noundef %57)
  %59 = zext i8 %58 to i32
  %60 = and i32 %59, 128
  %61 = icmp eq i32 %60, 128
  br i1 %61, label %62, label %63

62:                                               ; preds = %8
  store i8 1, ptr %19, align 1
  br label %64

63:                                               ; preds = %8
  store i8 0, ptr %19, align 1
  br label %64

64:                                               ; preds = %63, %62
  %65 = load ptr, ptr %12, align 8
  %66 = load i32, ptr %65, align 4
  %67 = add i32 %66, 1
  store i32 %67, ptr %65, align 4
  %68 = load i8, ptr %17, align 1, !range !6, !noundef !7
  %69 = trunc i8 %68 to i1
  br i1 %69, label %70, label %99

70:                                               ; preds = %64
  %71 = load ptr, ptr %11, align 8
  %72 = load ptr, ptr %23, align 8
  %73 = load ptr, ptr %12, align 8
  %74 = load i32, ptr %73, align 4
  %75 = call i32 @tvb_get_fle(ptr noundef %71, ptr noundef %72, i32 noundef %74, ptr noundef %21, ptr noundef null)
  %76 = trunc i32 %75 to i8
  store i8 %76, ptr %20, align 1
  %77 = load i8, ptr %20, align 1
  %78 = zext i8 %77 to i32
  %79 = load ptr, ptr %12, align 8
  %80 = load i32, ptr %79, align 4
  %81 = add i32 %80, %78
  store i32 %81, ptr %79, align 4
  %82 = load i64, ptr %21, align 8
  %83 = icmp ugt i64 %82, 0
  br i1 %83, label %84, label %98

84:                                               ; preds = %70
  %85 = load ptr, ptr %23, align 8
  %86 = load i32, ptr @hf_mysql_param_name, align 4
  %87 = load ptr, ptr %11, align 8
  %88 = load ptr, ptr %12, align 8
  %89 = load i32, ptr %88, align 4
  %90 = load i64, ptr %21, align 8
  %91 = trunc i64 %90 to i32
  %92 = call ptr @proto_tree_add_item(ptr noundef %85, i32 noundef %86, ptr noundef %87, i32 noundef %89, i32 noundef %91, i32 noundef 0)
  %93 = load i64, ptr %21, align 8
  %94 = trunc i64 %93 to i32
  %95 = load ptr, ptr %12, align 8
  %96 = load i32, ptr %95, align 4
  %97 = add i32 %96, %94
  store i32 %97, ptr %95, align 4
  br label %98

98:                                               ; preds = %84, %70
  br label %99

99:                                               ; preds = %98, %64
  %100 = load i8, ptr %14, align 1
  %101 = zext i8 %100 to i32
  %102 = and i32 %101, 1
  %103 = icmp eq i32 %102, 1
  br i1 %103, label %104, label %108

104:                                              ; preds = %99
  %105 = load ptr, ptr %15, align 8
  %106 = load ptr, ptr %23, align 8
  %107 = call ptr @expert_add_info(ptr noundef %105, ptr noundef %106, ptr noundef @ei_mysql_streamed_param)
  store i8 1, ptr %9, align 1
  store i32 1, ptr %25, align 4
  br label %151

108:                                              ; preds = %99
  br label %109

109:                                              ; preds = %147, %108
  %110 = load i32, ptr %24, align 4
  %111 = sext i32 %110 to i64
  %112 = getelementptr [29 x %struct.mysql_exec_dissector], ptr @mysql_exec_dissectors, i64 0, i64 %111
  %113 = getelementptr inbounds nuw %struct.mysql_exec_dissector, ptr %112, i32 0, i32 2
  %114 = load ptr, ptr %113, align 8
  %115 = icmp ne ptr %114, null
  br i1 %115, label %116, label %150

116:                                              ; preds = %109
  %117 = load i32, ptr %24, align 4
  %118 = sext i32 %117 to i64
  %119 = getelementptr [29 x %struct.mysql_exec_dissector], ptr @mysql_exec_dissectors, i64 0, i64 %118
  %120 = getelementptr inbounds nuw %struct.mysql_exec_dissector, ptr %119, i32 0, i32 0
  %121 = load i8, ptr %120, align 16
  %122 = zext i8 %121 to i32
  %123 = load i8, ptr %18, align 1
  %124 = zext i8 %123 to i32
  %125 = icmp eq i32 %122, %124
  br i1 %125, label %126, label %147

126:                                              ; preds = %116
  %127 = load i32, ptr %24, align 4
  %128 = sext i32 %127 to i64
  %129 = getelementptr [29 x %struct.mysql_exec_dissector], ptr @mysql_exec_dissectors, i64 0, i64 %128
  %130 = getelementptr inbounds nuw %struct.mysql_exec_dissector, ptr %129, i32 0, i32 1
  %131 = load i8, ptr %130, align 1
  %132 = zext i8 %131 to i32
  %133 = load i8, ptr %19, align 1
  %134 = zext i8 %133 to i32
  %135 = icmp eq i32 %132, %134
  br i1 %135, label %136, label %147

136:                                              ; preds = %126
  %137 = load i32, ptr %24, align 4
  %138 = sext i32 %137 to i64
  %139 = getelementptr [29 x %struct.mysql_exec_dissector], ptr @mysql_exec_dissectors, i64 0, i64 %138
  %140 = getelementptr inbounds nuw %struct.mysql_exec_dissector, ptr %139, i32 0, i32 2
  %141 = load ptr, ptr %140, align 8
  %142 = load ptr, ptr %11, align 8
  %143 = load ptr, ptr %15, align 8
  %144 = load ptr, ptr %13, align 8
  %145 = load ptr, ptr %23, align 8
  %146 = load i32, ptr %16, align 4
  call void %141(ptr noundef %142, ptr noundef %143, ptr noundef %144, ptr noundef %145, i32 noundef %146)
  store i8 1, ptr %9, align 1
  store i32 1, ptr %25, align 4
  br label %151

147:                                              ; preds = %126, %116
  %148 = load i32, ptr %24, align 4
  %149 = add i32 %148, 1
  store i32 %149, ptr %24, align 4
  br label %109, !llvm.loop !26

150:                                              ; preds = %109
  store i8 0, ptr %9, align 1
  store i32 1, ptr %25, align 4
  br label %151

151:                                              ; preds = %150, %136, %104
  call void @llvm.lifetime.end.p0(i64 4, ptr %24) #11
  call void @llvm.lifetime.end.p0(i64 8, ptr %23) #11
  call void @llvm.lifetime.end.p0(i64 8, ptr %22) #11
  call void @llvm.lifetime.end.p0(i64 8, ptr %21) #11
  call void @llvm.lifetime.end.p0(i64 1, ptr %20) #11
  call void @llvm.lifetime.end.p0(i64 1, ptr %19) #11
  call void @llvm.lifetime.end.p0(i64 1, ptr %18) #11
  %152 = load i8, ptr %9, align 1
  ret i8 %152
}