; Function Attrs: null_pointer_is_valid sspstrong uwtable
define internal fastcc signext range(i8 0, 2) i8 @mysql_dissect_exec_param(ptr noundef %0, ptr noundef %1, ptr noundef captures(none) %2, ptr noundef %3, i8 noundef zeroext %4, ptr noundef %5, i32 noundef %6, i1 noundef zeroext %7) unnamed_addr #0 {
  %9 = load i32, ptr @hf_mysql_exec_param, align 4
  %10 = load i32, ptr %2, align 4
  %11 = tail call ptr @proto_tree_add_item(ptr noundef %0, i32 noundef %9, ptr noundef %1, i32 noundef %10, i32 noundef 2, i32 noundef 0)
  %12 = load i32, ptr @ett_stat, align 4
  %13 = tail call ptr @proto_item_add_subtree(ptr noundef %11, i32 noundef %12)
  %14 = load i32, ptr @hf_mysql_fld_type, align 4
  %15 = load i32, ptr %2, align 4
  %16 = tail call ptr @proto_tree_add_item(ptr noundef %13, i32 noundef %14, ptr noundef %1, i32 noundef %15, i32 noundef 1, i32 noundef 0)
  %17 = load i32, ptr %2, align 4
  %18 = tail call zeroext i8 @tvb_get_uint8(ptr noundef %1, i32 noundef %17)
  %19 = load i32, ptr %2, align 4
  %20 = add i32 %19, 1
  store i32 %20, ptr %2, align 4
  %21 = load i32, ptr @hf_mysql_exec_unsigned, align 4
  %22 = tail call ptr @proto_tree_add_item(ptr noundef %13, i32 noundef %21, ptr noundef %1, i32 noundef %20, i32 noundef 1, i32 noundef 0)
  %23 = load i32, ptr %2, align 4
  %24 = tail call zeroext i8 @tvb_get_uint8(ptr noundef %1, i32 noundef %23)
  %.lobit = lshr i8 %24, 7
  %25 = load i32, ptr %2, align 4
  %26 = add i32 %25, 1
  store i32 %26, ptr %2, align 4
  br i1 %7, label %27, label %51

27:                                               ; preds = %8
  %28 = tail call zeroext i8 @tvb_get_uint8(ptr noundef %1, i32 noundef %26)
  switch i8 %28, label %40 [
    i8 -5, label %.sink.split
    i8 -4, label %29
    i8 -3, label %33
    i8 -2, label %37
  ]

29:                                               ; preds = %27
  %30 = add i32 %25, 2
  %31 = tail call zeroext i16 @tvb_get_uint16(ptr noundef %1, i32 noundef %30, i32 noundef -2147483648)
  %32 = zext i16 %31 to i64
  br label %tvb_get_fle.exit

33:                                               ; preds = %27
  %34 = add i32 %25, 2
  %35 = tail call i32 @tvb_get_uint24(ptr noundef %1, i32 noundef %34, i32 noundef -2147483648)
  %36 = zext i32 %35 to i64
  br label %tvb_get_fle.exit

37:                                               ; preds = %27
  %38 = add i32 %25, 2
  %39 = tail call i64 @tvb_get_uint64(ptr noundef %1, i32 noundef %38, i32 noundef -2147483648)
  br label %tvb_get_fle.exit

40:                                               ; preds = %27
  %41 = tail call zeroext i8 @tvb_get_uint8(ptr noundef %1, i32 noundef %26)
  %42 = zext i8 %41 to i64
  br label %tvb_get_fle.exit

tvb_get_fle.exit:                                 ; preds = %29, %33, %37, %40
  %.049 = phi i64 [ %42, %40 ], [ %39, %37 ], [ %36, %33 ], [ %32, %29 ]
  %.025.i = phi i32 [ 1, %40 ], [ 9, %37 ], [ 4, %33 ], [ 3, %29 ]
  %43 = load i32, ptr %2, align 4
  %44 = add i32 %43, %.025.i
  store i32 %44, ptr %2, align 4
  %.not45 = icmp eq i64 %.049, 0
  br i1 %.not45, label %51, label %45

45:                                               ; preds = %tvb_get_fle.exit
  %46 = load i32, ptr @hf_mysql_param_name, align 4
  %47 = trunc i64 %.049 to i32
  %48 = tail call ptr @proto_tree_add_item(ptr noundef %13, i32 noundef %46, ptr noundef %1, i32 noundef %44, i32 noundef %47, i32 noundef 0)
  br label %.sink.split

.sink.split:                                      ; preds = %27, %45
  %.sink59 = phi i32 [ %47, %45 ], [ 1, %27 ]
  %49 = load i32, ptr %2, align 4
  %50 = add i32 %49, %.sink59
  store i32 %50, ptr %2, align 4
  br label %51

51:                                               ; preds = %.sink.split, %tvb_get_fle.exit, %8
  %52 = and i8 %4, 1
  %.not46 = icmp eq i8 %52, 0
  br i1 %.not46, label %.preheader, label %53

53:                                               ; preds = %51
  %54 = tail call ptr @expert_add_info(ptr noundef %5, ptr noundef %13, ptr noundef nonnull @ei_mysql_streamed_param)
  br label %.loopexit

.preheader:                                       ; preds = %51, %64
  %indvars.iv = phi i64 [ %indvars.iv.next, %64 ], [ 0, %51 ]
  %55 = phi ptr [ %67, %64 ], [ @mysql_dissect_exec_tiny, %51 ]
  %56 = phi ptr [ %65, %64 ], [ @mysql_exec_dissectors, %51 ]
  %57 = load i8, ptr %56, align 16
  %58 = icmp eq i8 %57, %18
  br i1 %58, label %59, label %64

59:                                               ; preds = %.preheader
  %60 = getelementptr inbounds nuw i8, ptr %56, i64 1
  %61 = load i8, ptr %60, align 1
  %62 = icmp eq i8 %.lobit, %61
  br i1 %62, label %63, label %64

63:                                               ; preds = %59
  tail call void %55(ptr noundef %1, ptr noundef %5, ptr noundef %3, ptr noundef %13, i32 noundef %6)
  br label %.loopexit

64:                                               ; preds = %59, %.preheader
  %indvars.iv.next = add nuw nsw i64 %indvars.iv, 1
  %65 = getelementptr [29 x %struct.mysql_exec_dissector], ptr @mysql_exec_dissectors, i64 0, i64 %indvars.iv.next
  %66 = getelementptr inbounds nuw i8, ptr %65, i64 8
  %67 = load ptr, ptr %66, align 8
  %exitcond = icmp eq i64 %indvars.iv.next, 28
  br i1 %exitcond, label %.loopexit, label %.preheader, !llvm.loop !26

.loopexit:                                        ; preds = %64, %63, %53
  %.041 = phi i8 [ 1, %53 ], [ 1, %63 ], [ 0, %64 ]
  ret i8 %.041
}